; Function Attrs: mustprogress nounwind uwtable
define internal fastcc noundef ptr @_ZL12rotate_shiftP8PhaseGVNP4NodeS2_i(ptr noundef %0, ptr noundef readonly %1, ptr noundef %2, i32 noundef %3) unnamed_addr #0 {
  %5 = getelementptr inbounds i8, ptr %0, i64 40
  %6 = load ptr, ptr %5, align 8
  %7 = getelementptr inbounds i8, ptr %1, i64 40
  %8 = load i32, ptr %7, align 8
  %9 = getelementptr inbounds i8, ptr %6, i64 16
  %10 = load ptr, ptr %9, align 8
  %11 = zext i32 %8 to i64
  %12 = getelementptr inbounds ptr, ptr %10, i64 %11
  %13 = load ptr, ptr %12, align 8
  %14 = getelementptr inbounds i8, ptr %13, i64 16
  %15 = load i32, ptr %14, align 8
  %16 = icmp ne i32 %15, 3
  %17 = getelementptr inbounds i8, ptr %2, i64 40
  %18 = load i32, ptr %17, align 8
  %19 = zext i32 %18 to i64
  %20 = getelementptr inbounds ptr, ptr %10, i64 %19
  %21 = load ptr, ptr %20, align 8
  %22 = getelementptr inbounds i8, ptr %21, i64 16
  %23 = load i32, ptr %22, align 8
  %24 = icmp eq i32 %23, 3
  %..i34 = select i1 %24, ptr %21, ptr null
  %.not38 = icmp eq ptr %13, null
  %.not = or i1 %.not38, %16
  br i1 %.not, label %46, label %25

25:                                               ; preds = %4
  %26 = getelementptr inbounds i8, ptr %13, i64 24
  %27 = load i32, ptr %26, align 8
  %28 = getelementptr inbounds i8, ptr %13, i64 28
  %29 = load i32, ptr %28, align 4
  %30 = icmp eq i32 %27, %29
  %31 = icmp ne ptr %..i34, null
  %or.cond = and i1 %31, %30
  br i1 %or.cond, label %32, label %46

32:                                               ; preds = %25
  %33 = getelementptr inbounds i8, ptr %..i34, i64 24
  %34 = load i32, ptr %33, align 8
  %35 = getelementptr inbounds i8, ptr %..i34, i64 28
  %36 = load i32, ptr %35, align 4
  %37 = icmp eq i32 %34, %36
  br i1 %37, label %38, label %46

38:                                               ; preds = %32
  %39 = and i32 %27, %3
  %40 = add nuw nsw i32 %3, 1
  %41 = and i32 %34, %3
  %42 = sub i32 %40, %41
  %43 = icmp eq i32 %39, %42
  br i1 %43, label %44, label %46

44:                                               ; preds = %38
  %45 = tail call noundef ptr @_ZN11PhaseValues6intconEi(ptr noundef nonnull align 8 dereferenceable(2400) %0, i32 noundef %39) #7
  br label %86

46:                                               ; preds = %38, %32, %25, %4
  %47 = load ptr, ptr %2, align 8
  %48 = load ptr, ptr %47, align 8
  %49 = tail call noundef i32 %48(ptr noundef nonnull align 8 dereferenceable(52) %2) #7
  %50 = icmp eq i32 %49, 342
  br i1 %50, label %51, label %85

51:                                               ; preds = %46
  %52 = getelementptr inbounds i8, ptr %2, i64 8
  %53 = load ptr, ptr %52, align 8
  %54 = getelementptr inbounds i8, ptr %53, i64 16
  %55 = load ptr, ptr %54, align 8
  %56 = icmp eq ptr %55, %1
  br i1 %56, label %57, label %85

57:                                               ; preds = %51
  %58 = getelementptr inbounds i8, ptr %53, i64 8
  %59 = load ptr, ptr %58, align 8
  %60 = getelementptr inbounds i8, ptr %59, i64 48
  %61 = load i32, ptr %60, align 8
  %62 = and i32 %61, 16
  %.not39 = icmp eq i32 %62, 0
  br i1 %.not39, label %85, label %63

63:                                               ; preds = %57
  %64 = load ptr, ptr %5, align 8
  %65 = getelementptr inbounds i8, ptr %59, i64 40
  %66 = load i32, ptr %65, align 8
  %67 = getelementptr inbounds i8, ptr %64, i64 16
  %68 = load ptr, ptr %67, align 8
  %69 = zext i32 %66 to i64
  %70 = getelementptr inbounds ptr, ptr %68, i64 %69
  %71 = load ptr, ptr %70, align 8
  %72 = getelementptr inbounds i8, ptr %71, i64 16
  %73 = load i32, ptr %72, align 8
  %74 = icmp ne i32 %73, 3
  %.not3340 = icmp eq ptr %71, null
  %.not33 = or i1 %.not3340, %74
  br i1 %.not33, label %85, label %75

75:                                               ; preds = %63
  %76 = getelementptr inbounds i8, ptr %71, i64 24
  %77 = load i32, ptr %76, align 8
  %78 = getelementptr inbounds i8, ptr %71, i64 28
  %79 = load i32, ptr %78, align 4
  %80 = icmp eq i32 %77, %79
  br i1 %80, label %81, label %85

81:                                               ; preds = %75
  %82 = icmp eq i32 %77, 0
  %83 = add nuw nsw i32 %3, 1
  %84 = icmp eq i32 %77, %83
  %or.cond37 = select i1 %82, i1 true, i1 %84
  br i1 %or.cond37, label %86, label %85

85:                                               ; preds = %81, %63, %75, %57, %51, %46
  br label %86

86:                                               ; preds = %81, %85, %44
  %.0 = phi ptr [ %45, %44 ], [ null, %85 ], [ %1, %81 ]
  ret ptr %.0
}